target datalayout = "e-m:e-p270:32:32-p271:32:32-p272:64:64-i64:64-i128:128-f80:128-n8:16:32:64-S128"
target triple = "x86_64-pc-linux-gnu"

%struct.ADPCMChannelStatus = type { i32, i16, i32, i32, i32, i32, i32, i32, i32 }
%struct.PutBitContext = type { i32, i32, ptr, ptr, ptr }

@.str.39 = private unnamed_addr constant [43 x i8] c"Internal error, put_bits buffer too small\0A\00", align 1

; Function Attrs: alwaysinline nounwind willreturn memory(none) uwtable
define internal i32 @av_bswap32(i32 noundef %0) #7 {
  %2 = alloca i32, align 4
  store i32 %0, ptr %2, align 4, !tbaa !32
  %3 = load i32, ptr %2, align 4, !tbaa !32
  %4 = shl i32 %3, 8
  %5 = and i32 %4, 65280
  %6 = load i32, ptr %2, align 4, !tbaa !32
  %7 = lshr i32 %6, 8
  %8 = and i32 %7, 255
  %9 = or i32 %5, %8
  %10 = shl i32 %9, 16
  %11 = load i32, ptr %2, align 4, !tbaa !32
  %12 = lshr i32 %11, 16
  %13 = shl i32 %12, 8
  %14 = and i32 %13, 65280
  %15 = load i32, ptr %2, align 4, !tbaa !32
  %16 = lshr i32 %15, 16
  %17 = lshr i32 %16, 8
  %18 = and i32 %17, 255
  %19 = or i32 %14, %18
  %20 = or i32 %10, %19
  ret i32 %20
}

; Function Attrs: inlinehint nounwind uwtable
define internal void @put_bits_no_assert(ptr noundef %0, i32 noundef %1, i32 noundef %2) #5 {
  %4 = alloca ptr, align 8
  %5 = alloca i32, align 4
  %6 = alloca i32, align 4
  %7 = alloca i32, align 4
  %8 = alloca i32, align 4
  store ptr %0, ptr %4, align 8, !tbaa !153
  store i32 %1, ptr %5, align 4, !tbaa !32
  store i32 %2, ptr %6, align 4, !tbaa !32
  call void @llvm.lifetime.start.p0(i64 4, ptr %7) #10
  call void @llvm.lifetime.start.p0(i64 4, ptr %8) #10
  %9 = load ptr, ptr %4, align 8, !tbaa !153
  %10 = getelementptr inbounds nuw %struct.PutBitContext, ptr %9, i32 0, i32 0
  %11 = load i32, ptr %10, align 8, !tbaa !160
  store i32 %11, ptr %7, align 4, !tbaa !32
  %12 = load ptr, ptr %4, align 8, !tbaa !153
  %13 = getelementptr inbounds nuw %struct.PutBitContext, ptr %12, i32 0, i32 1
  %14 = load i32, ptr %13, align 4, !tbaa !159
  store i32 %14, ptr %8, align 4, !tbaa !32
  %15 = load i32, ptr %5, align 4, !tbaa !32
  %16 = load i32, ptr %8, align 4, !tbaa !32
  %17 = icmp slt i32 %15, %16
  br i1 %17, label %18, label %27

18:                                               ; preds = %3
  %19 = load i32, ptr %7, align 4, !tbaa !32
  %20 = load i32, ptr %5, align 4, !tbaa !32
  %21 = shl i32 %19, %20
  %22 = load i32, ptr %6, align 4, !tbaa !32
  %23 = or i32 %21, %22
  store i32 %23, ptr %7, align 4, !tbaa !32
  %24 = load i32, ptr %5, align 4, !tbaa !32
  %25 = load i32, ptr %8, align 4, !tbaa !32
  %26 = sub nsw i32 %25, %24
  store i32 %26, ptr %8, align 4, !tbaa !32
  br label %65

27:                                               ; preds = %3
  %28 = load i32, ptr %8, align 4, !tbaa !32
  %29 = load i32, ptr %7, align 4, !tbaa !32
  %30 = shl i32 %29, %28
  store i32 %30, ptr %7, align 4, !tbaa !32
  %31 = load i32, ptr %6, align 4, !tbaa !32
  %32 = load i32, ptr %5, align 4, !tbaa !32
  %33 = load i32, ptr %8, align 4, !tbaa !32
  %34 = sub nsw i32 %32, %33
  %35 = lshr i32 %31, %34
  %36 = load i32, ptr %7, align 4, !tbaa !32
  %37 = or i32 %36, %35
  store i32 %37, ptr %7, align 4, !tbaa !32
  %38 = load ptr, ptr %4, align 8, !tbaa !153
  %39 = getelementptr inbounds nuw %struct.PutBitContext, ptr %38, i32 0, i32 4
  %40 = load ptr, ptr %39, align 8, !tbaa !157
  %41 = load ptr, ptr %4, align 8, !tbaa !153
  %42 = getelementptr inbounds nuw %struct.PutBitContext, ptr %41, i32 0, i32 3
  %43 = load ptr, ptr %42, align 8, !tbaa !158
  %44 = ptrtoint ptr %40 to i64
  %45 = ptrtoint ptr %43 to i64
  %46 = sub i64 %44, %45
  %47 = icmp uge i64 %46, 4
  br i1 %47, label %48, label %58

48:                                               ; preds = %27
  %49 = load i32, ptr %7, align 4, !tbaa !32
  %50 = call i32 @av_bswap32(i32 noundef %49) #12
  %51 = load ptr, ptr %4, align 8, !tbaa !153
  %52 = getelementptr inbounds nuw %struct.PutBitContext, ptr %51, i32 0, i32 3
  %53 = load ptr, ptr %52, align 8, !tbaa !158
  store i32 %50, ptr %53, align 1, !tbaa !55
  %54 = load ptr, ptr %4, align 8, !tbaa !153
  %55 = getelementptr inbounds nuw %struct.PutBitContext, ptr %54, i32 0, i32 3
  %56 = load ptr, ptr %55, align 8, !tbaa !158
  %57 = getelementptr inbounds nuw i8, ptr %56, i64 4
  store ptr %57, ptr %55, align 8, !tbaa !158
  br label %59

58:                                               ; preds = %27
  call void (ptr, i32, ptr, ...) @av_log(ptr noundef null, i32 noundef 16, ptr noundef @.str.39)
  br label %59

59:                                               ; preds = %58, %48
  %60 = load i32, ptr %5, align 4, !tbaa !32
  %61 = sub nsw i32 32, %60
  %62 = load i32, ptr %8, align 4, !tbaa !32
  %63 = add nsw i32 %62, %61
  store i32 %63, ptr %8, align 4, !tbaa !32
  %64 = load i32, ptr %6, align 4, !tbaa !32
  store i32 %64, ptr %7, align 4, !tbaa !32
  br label %65

65:                                               ; preds = %59, %18
  %66 = load i32, ptr %7, align 4, !tbaa !32
  %67 = load ptr, ptr %4, align 8, !tbaa !153
  %68 = getelementptr inbounds nuw %struct.PutBitContext, ptr %67, i32 0, i32 0
  store i32 %66, ptr %68, align 8, !tbaa !160
  %69 = load i32, ptr %8, align 4, !tbaa !32
  %70 = load ptr, ptr %4, align 8, !tbaa !153
  %71 = getelementptr inbounds nuw %struct.PutBitContext, ptr %70, i32 0, i32 1
  store i32 %69, ptr %71, align 4, !tbaa !159
  call void @llvm.lifetime.end.p0(i64 4, ptr %8) #10
  call void @llvm.lifetime.end.p0(i64 4, ptr %7) #10
  ret void
}

; Function Attrs: inlinehint nounwind uwtable
define internal i32 @adpcm_argo_compress_nibble(ptr noundef %0, i16 noundef signext %1, i32 noundef %2, i32 noundef %3) #5 {
  %5 = alloca ptr, align 8
  %6 = alloca i16, align 2
  %7 = alloca i32, align 4
  %8 = alloca i32, align 4
  %9 = alloca i32, align 4
  store ptr %0, ptr %5, align 8, !tbaa !76
  store i16 %1, ptr %6, align 2, !tbaa !78
  store i32 %2, ptr %7, align 4, !tbaa !32
  store i32 %3, ptr %8, align 4, !tbaa !32
  call void @llvm.lifetime.start.p0(i64 4, ptr %9) #10
  %10 = load i32, ptr %8, align 4, !tbaa !32
  %11 = icmp ne i32 %10, 0
  br i1 %11, label %12, label %26

12:                                               ; preds = %4
  %13 = load i16, ptr %6, align 2, !tbaa !78
  %14 = sext i16 %13 to i32
  %15 = mul nsw i32 4, %14
  %16 = load ptr, ptr %5, align 8, !tbaa !76
  %17 = getelementptr inbounds nuw %struct.ADPCMChannelStatus, ptr %16, i32 0, i32 4
  %18 = load i32, ptr %17, align 4, !tbaa !109
  %19 = mul nsw i32 8, %18
  %20 = sub nsw i32 %15, %19
  %21 = load ptr, ptr %5, align 8, !tbaa !76
  %22 = getelementptr inbounds nuw %struct.ADPCMChannelStatus, ptr %21, i32 0, i32 5
  %23 = load i32, ptr %22, align 4, !tbaa !107
  %24 = mul nsw i32 4, %23
  %25 = add nsw i32 %20, %24
  store i32 %25, ptr %9, align 4, !tbaa !32
  br label %35

26:                                               ; preds = %4
  %27 = load i16, ptr %6, align 2, !tbaa !78
  %28 = sext i16 %27 to i32
  %29 = mul nsw i32 4, %28
  %30 = load ptr, ptr %5, align 8, !tbaa !76
  %31 = getelementptr inbounds nuw %struct.ADPCMChannelStatus, ptr %30, i32 0, i32 4
  %32 = load i32, ptr %31, align 4, !tbaa !109
  %33 = mul nsw i32 4, %32
  %34 = sub nsw i32 %29, %33
  store i32 %34, ptr %9, align 4, !tbaa !32
  br label %35

35:                                               ; preds = %26, %12
  %36 = load i32, ptr %9, align 4, !tbaa !32
  %37 = load i32, ptr %7, align 4, !tbaa !32
  %38 = ashr i32 %36, %37
  %39 = and i32 %38, 15
  call void @llvm.lifetime.end.p0(i64 4, ptr %9) #10
  ret i32 %39
}

; Function Attrs: inlinehint nounwind uwtable
define internal void @put_bits(ptr noundef %0, i32 noundef %1, i32 noundef %2) #5 {
  %4 = alloca ptr, align 8
  %5 = alloca i32, align 4
  %6 = alloca i32, align 4
  store ptr %0, ptr %4, align 8, !tbaa !153
  store i32 %1, ptr %5, align 4, !tbaa !32
  store i32 %2, ptr %6, align 4, !tbaa !32
  %7 = load ptr, ptr %4, align 8, !tbaa !153
  %8 = load i32, ptr %5, align 4, !tbaa !32
  %9 = load i32, ptr %6, align 4, !tbaa !32
  call void @put_bits_no_assert(ptr noundef %7, i32 noundef %8, i32 noundef %9)
  ret void
}

; Function Attrs: nounwind uwtable
define internal i64 @adpcm_argo_compress_block(ptr noundef %0, ptr noundef %1, ptr noundef %2, i32 noundef %3, i32 noundef %4, i32 noundef %5) #1 {
  %7 = alloca ptr, align 8
  %8 = alloca ptr, align 8
  %9 = alloca ptr, align 8
  %10 = alloca i32, align 4
  %11 = alloca i32, align 4
  %12 = alloca i32, align 4
  %13 = alloca i64, align 8
  %14 = alloca i32, align 4
  %15 = alloca i32, align 4
  %16 = alloca i16, align 2
  store ptr %0, ptr %7, align 8, !tbaa !76
  store ptr %1, ptr %8, align 8, !tbaa !153
  store ptr %2, ptr %9, align 8, !tbaa !64
  store i32 %3, ptr %10, align 4, !tbaa !32
  store i32 %4, ptr %11, align 4, !tbaa !32
  store i32 %5, ptr %12, align 4, !tbaa !32
  call void @llvm.lifetime.start.p0(i64 8, ptr %13) #10
  store i64 0, ptr %13, align 8, !tbaa !122
  %17 = load ptr, ptr %8, align 8, !tbaa !153
  %18 = icmp ne ptr %17, null
  br i1 %18, label %19, label %31

19:                                               ; preds = %6
  %20 = load ptr, ptr %8, align 8, !tbaa !153
  %21 = load i32, ptr %11, align 4, !tbaa !32
  %22 = sub nsw i32 %21, 2
  call void @put_bits(ptr noundef %20, i32 noundef 4, i32 noundef %22)
  %23 = load ptr, ptr %8, align 8, !tbaa !153
  call void @put_bits(ptr noundef %23, i32 noundef 1, i32 noundef 0)
  %24 = load ptr, ptr %8, align 8, !tbaa !153
  %25 = load i32, ptr %12, align 4, !tbaa !32
  %26 = icmp ne i32 %25, 0
  %27 = xor i1 %26, true
  %28 = xor i1 %27, true
  %29 = zext i1 %28 to i32
  call void @put_bits(ptr noundef %24, i32 noundef 1, i32 noundef %29)
  %30 = load ptr, ptr %8, align 8, !tbaa !153
  call void @put_bits(ptr noundef %30, i32 noundef 2, i32 noundef 0)
  br label %31

31:                                               ; preds = %19, %6
  call void @llvm.lifetime.start.p0(i64 4, ptr %14) #10
  store i32 0, ptr %14, align 4, !tbaa !32
  br label %32

32:                                               ; preds = %71, %31
  %33 = load i32, ptr %14, align 4, !tbaa !32
  %34 = load i32, ptr %10, align 4, !tbaa !32
  %35 = icmp slt i32 %33, %34
  br i1 %35, label %37, label %36

36:                                               ; preds = %32
  call void @llvm.lifetime.end.p0(i64 4, ptr %14) #10
  br label %74

37:                                               ; preds = %32
  call void @llvm.lifetime.start.p0(i64 4, ptr %15) #10
  %38 = load ptr, ptr %7, align 8, !tbaa !76
  %39 = load ptr, ptr %9, align 8, !tbaa !64
  %40 = load i32, ptr %14, align 4, !tbaa !32
  %41 = sext i32 %40 to i64
  %42 = getelementptr inbounds i16, ptr %39, i64 %41
  %43 = load i16, ptr %42, align 2, !tbaa !78
  %44 = load i32, ptr %11, align 4, !tbaa !32
  %45 = load i32, ptr %12, align 4, !tbaa !32
  %46 = call i32 @adpcm_argo_compress_nibble(ptr noundef %38, i16 noundef signext %43, i32 noundef %44, i32 noundef %45)
  store i32 %46, ptr %15, align 4, !tbaa !32
  call void @llvm.lifetime.start.p0(i64 2, ptr %16) #10
  %47 = load ptr, ptr %7, align 8, !tbaa !76
  %48 = load i32, ptr %15, align 4, !tbaa !32
  %49 = load i32, ptr %11, align 4, !tbaa !32
  %50 = load i32, ptr %12, align 4, !tbaa !32
  %51 = call signext i16 @ff_adpcm_argo_expand_nibble(ptr noundef %47, i32 noundef %48, i32 noundef %49, i32 noundef %50)
  store i16 %51, ptr %16, align 2, !tbaa !78
  %52 = load ptr, ptr %9, align 8, !tbaa !64
  %53 = load i32, ptr %14, align 4, !tbaa !32
  %54 = sext i32 %53 to i64
  %55 = getelementptr inbounds i16, ptr %52, i64 %54
  %56 = load i16, ptr %55, align 2, !tbaa !78
  %57 = sext i16 %56 to i32
  %58 = load i16, ptr %16, align 2, !tbaa !78
  %59 = sext i16 %58 to i32
  %60 = sub nsw i32 %57, %59
  %61 = call i32 @llvm.abs.i32(i32 %60, i1 true)
  %62 = sext i32 %61 to i64
  %63 = load i64, ptr %13, align 8, !tbaa !122
  %64 = add nsw i64 %63, %62
  store i64 %64, ptr %13, align 8, !tbaa !122
  %65 = load ptr, ptr %8, align 8, !tbaa !153
  %66 = icmp ne ptr %65, null
  br i1 %66, label %67, label %70

67:                                               ; preds = %37
  %68 = load ptr, ptr %8, align 8, !tbaa !153
  %69 = load i32, ptr %15, align 4, !tbaa !32
  call void @put_bits(ptr noundef %68, i32 noundef 4, i32 noundef %69)
  br label %70

70:                                               ; preds = %67, %37
  call void @llvm.lifetime.end.p0(i64 2, ptr %16) #10
  call void @llvm.lifetime.end.p0(i64 4, ptr %15) #10
  br label %71

71:                                               ; preds = %70
  %72 = load i32, ptr %14, align 4, !tbaa !32
  %73 = add nsw i32 %72, 1
  store i32 %73, ptr %14, align 4, !tbaa !32
  br label %32, !llvm.loop !162

74:                                               ; preds = %36
  %75 = load i64, ptr %13, align 8, !tbaa !122
  call void @llvm.lifetime.end.p0(i64 8, ptr %13) #10
  ret i64 %75
}