; Function Attrs: nounwind uwtable
define internal fastcc void @adpcm_argo_compress_block(ptr noundef %0, ptr noundef captures(address_is_null) %1, ptr noundef readonly captures(none) %2, i32 noundef %3, i32 noundef %4, i32 noundef range(i32 0, 2) %5) unnamed_addr #1 {
  %.not = icmp eq ptr %1, null
  br i1 %.not, label %95, label %7

7:                                                ; preds = %6
  %8 = add nsw i32 %4, -2
  %9 = load i32, ptr %1, align 8, !tbaa !115
  %10 = getelementptr inbounds nuw i8, ptr %1, i64 4
  %11 = load i32, ptr %10, align 4, !tbaa !114
  %12 = icmp sgt i32 %11, 4
  br i1 %12, label %13, label %16

13:                                               ; preds = %7
  %14 = shl i32 %9, 4
  %15 = or i32 %14, %8
  br label %put_bits.exit

16:                                               ; preds = %7
  %17 = getelementptr inbounds nuw i8, ptr %1, i64 24
  %18 = load ptr, ptr %17, align 8, !tbaa !112
  %19 = getelementptr inbounds nuw i8, ptr %1, i64 16
  %20 = load ptr, ptr %19, align 8, !tbaa !113
  %21 = ptrtoint ptr %18 to i64
  %22 = ptrtoint ptr %20 to i64
  %23 = sub i64 %21, %22
  %24 = icmp ugt i64 %23, 3
  br i1 %24, label %25, label %33

25:                                               ; preds = %16
  %26 = shl i32 %9, %11
  %27 = sub nsw i32 4, %11
  %28 = lshr i32 %8, %27
  %29 = or i32 %28, %26
  %30 = tail call i32 @llvm.bswap.i32(i32 %29)
  store i32 %30, ptr %20, align 1, !tbaa !49
  %31 = load ptr, ptr %19, align 8, !tbaa !113
  %32 = getelementptr inbounds nuw i8, ptr %31, i64 4
  store ptr %32, ptr %19, align 8, !tbaa !113
  br label %put_bits.exit

33:                                               ; preds = %16
  tail call void (ptr, i32, ptr, ...) @av_log(ptr noundef null, i32 noundef 16, ptr noundef nonnull @.str.39) #10
  br label %put_bits.exit

put_bits.exit:                                    ; preds = %25, %33, %13
  %.sink = phi i32 [ -4, %13 ], [ 28, %33 ], [ 28, %25 ]
  %.026.i.i = phi i32 [ %15, %13 ], [ %8, %33 ], [ %8, %25 ]
  %34 = add nsw i32 %11, %.sink
  store i32 %.026.i.i, ptr %1, align 8, !tbaa !115
  store i32 %34, ptr %10, align 4, !tbaa !114
  %35 = icmp sgt i32 %34, 1
  br i1 %35, label %36, label %38

36:                                               ; preds = %put_bits.exit
  %37 = shl i32 %.026.i.i, 1
  br label %put_bits.exit31

38:                                               ; preds = %put_bits.exit
  %39 = getelementptr inbounds nuw i8, ptr %1, i64 24
  %40 = load ptr, ptr %39, align 8, !tbaa !112
  %41 = getelementptr inbounds nuw i8, ptr %1, i64 16
  %42 = load ptr, ptr %41, align 8, !tbaa !113
  %43 = ptrtoint ptr %40 to i64
  %44 = ptrtoint ptr %42 to i64
  %45 = sub i64 %43, %44
  %46 = icmp ugt i64 %45, 3
  br i1 %46, label %47, label %52

47:                                               ; preds = %38
  %48 = shl i32 %.026.i.i, %34
  %49 = tail call i32 @llvm.bswap.i32(i32 %48)
  store i32 %49, ptr %42, align 1, !tbaa !49
  %50 = load ptr, ptr %41, align 8, !tbaa !113
  %51 = getelementptr inbounds nuw i8, ptr %50, i64 4
  store ptr %51, ptr %41, align 8, !tbaa !113
  br label %put_bits.exit31

52:                                               ; preds = %38
  tail call void (ptr, i32, ptr, ...) @av_log(ptr noundef null, i32 noundef 16, ptr noundef nonnull @.str.39) #10
  br label %put_bits.exit31

put_bits.exit31:                                  ; preds = %47, %52, %36
  %.sink69 = phi i32 [ -1, %36 ], [ 31, %52 ], [ 31, %47 ]
  %.026.i.i29 = phi i32 [ %37, %36 ], [ 0, %52 ], [ 0, %47 ]
  %53 = add nsw i32 %34, %.sink69
  store i32 %.026.i.i29, ptr %1, align 8, !tbaa !115
  store i32 %53, ptr %10, align 4, !tbaa !114
  %54 = icmp sgt i32 %53, 1
  br i1 %54, label %55, label %58

55:                                               ; preds = %put_bits.exit31
  %56 = shl i32 %.026.i.i29, 1
  %57 = or disjoint i32 %56, %5
  br label %put_bits.exit35

58:                                               ; preds = %put_bits.exit31
  %59 = getelementptr inbounds nuw i8, ptr %1, i64 24
  %60 = load ptr, ptr %59, align 8, !tbaa !112
  %61 = getelementptr inbounds nuw i8, ptr %1, i64 16
  %62 = load ptr, ptr %61, align 8, !tbaa !113
  %63 = ptrtoint ptr %60 to i64
  %64 = ptrtoint ptr %62 to i64
  %65 = sub i64 %63, %64
  %66 = icmp ugt i64 %65, 3
  br i1 %66, label %67, label %75

67:                                               ; preds = %58
  %68 = shl i32 %.026.i.i29, %53
  %69 = sub nsw i32 1, %53
  %70 = lshr i32 %5, %69
  %71 = or disjoint i32 %70, %68
  %72 = tail call i32 @llvm.bswap.i32(i32 %71)
  store i32 %72, ptr %62, align 1, !tbaa !49
  %73 = load ptr, ptr %61, align 8, !tbaa !113
  %74 = getelementptr inbounds nuw i8, ptr %73, i64 4
  store ptr %74, ptr %61, align 8, !tbaa !113
  br label %put_bits.exit35

75:                                               ; preds = %58
  tail call void (ptr, i32, ptr, ...) @av_log(ptr noundef null, i32 noundef 16, ptr noundef nonnull @.str.39) #10
  br label %put_bits.exit35

put_bits.exit35:                                  ; preds = %67, %75, %55
  %.sink70 = phi i32 [ -1, %55 ], [ 31, %75 ], [ 31, %67 ]
  %.026.i.i33 = phi i32 [ %57, %55 ], [ %5, %75 ], [ %5, %67 ]
  %76 = add nsw i32 %53, %.sink70
  store i32 %.026.i.i33, ptr %1, align 8, !tbaa !115
  store i32 %76, ptr %10, align 4, !tbaa !114
  %77 = icmp sgt i32 %76, 2
  br i1 %77, label %78, label %80

78:                                               ; preds = %put_bits.exit35
  %79 = shl i32 %.026.i.i33, 2
  br label %.thread

80:                                               ; preds = %put_bits.exit35
  %81 = getelementptr inbounds nuw i8, ptr %1, i64 24
  %82 = load ptr, ptr %81, align 8, !tbaa !112
  %83 = getelementptr inbounds nuw i8, ptr %1, i64 16
  %84 = load ptr, ptr %83, align 8, !tbaa !113
  %85 = ptrtoint ptr %82 to i64
  %86 = ptrtoint ptr %84 to i64
  %87 = sub i64 %85, %86
  %88 = icmp ugt i64 %87, 3
  br i1 %88, label %89, label %94

89:                                               ; preds = %80
  %90 = shl i32 %.026.i.i33, %76
  %91 = tail call i32 @llvm.bswap.i32(i32 %90)
  store i32 %91, ptr %84, align 1, !tbaa !49
  %92 = load ptr, ptr %83, align 8, !tbaa !113
  %93 = getelementptr inbounds nuw i8, ptr %92, i64 4
  store ptr %93, ptr %83, align 8, !tbaa !113
  br label %.thread

94:                                               ; preds = %80
  tail call void (ptr, i32, ptr, ...) @av_log(ptr noundef null, i32 noundef 16, ptr noundef nonnull @.str.39) #10
  br label %.thread

95:                                               ; preds = %6
  %96 = icmp sgt i32 %3, 0
  br i1 %96, label %.lr.ph.split.us, label %._crit_edge

.thread:                                          ; preds = %89, %94, %78
  %.sink71 = phi i32 [ -2, %78 ], [ 30, %94 ], [ 30, %89 ]
  %.026.i.i37 = phi i32 [ %79, %78 ], [ 0, %94 ], [ 0, %89 ]
  %97 = add nsw i32 %76, %.sink71
  store i32 %.026.i.i37, ptr %1, align 8, !tbaa !115
  store i32 %97, ptr %10, align 4, !tbaa !114
  %98 = icmp sgt i32 %3, 0
  br i1 %98, label %.lr.ph.split.preheader, label %._crit_edge

.lr.ph.split.preheader:                           ; preds = %.thread
  %.not.i63 = icmp eq i32 %5, 0
  %99 = getelementptr inbounds nuw i8, ptr %0, i64 16
  %100 = getelementptr inbounds nuw i8, ptr %0, i64 20
  %101 = getelementptr inbounds nuw i8, ptr %1, i64 4
  %102 = getelementptr inbounds nuw i8, ptr %1, i64 24
  %103 = getelementptr inbounds nuw i8, ptr %1, i64 16
  %wide.trip.count = zext nneg i32 %3 to i64
  br label %.lr.ph.split

.lr.ph.split.us:                                  ; preds = %95
  %.not.i = icmp eq i32 %5, 0
  %104 = getelementptr inbounds nuw i8, ptr %0, i64 16
  %105 = getelementptr inbounds nuw i8, ptr %0, i64 20
  %wide.trip.count61 = zext nneg i32 %3 to i64
  br i1 %.not.i, label %adpcm_argo_compress_nibble.exit.us.us, label %adpcm_argo_compress_nibble.exit.us

adpcm_argo_compress_nibble.exit.us.us:            ; preds = %.lr.ph.split.us, %adpcm_argo_compress_nibble.exit.us.us
  %indvars.iv58 = phi i64 [ %indvars.iv.next59, %adpcm_argo_compress_nibble.exit.us.us ], [ 0, %.lr.ph.split.us ]
  %106 = getelementptr inbounds nuw i16, ptr %2, i64 %indvars.iv58
  %107 = load i16, ptr %106, align 2, !tbaa !64
  %108 = sext i16 %107 to i32
  %109 = load i32, ptr %104, align 4, !tbaa !96
  %110 = sub nsw i32 %108, %109
  %111 = shl nsw i32 %110, 2
  %112 = ashr i32 %111, %4
  %113 = and i32 %112, 15
  %114 = tail call signext i16 @ff_adpcm_argo_expand_nibble(ptr noundef nonnull %0, i32 noundef %113, i32 noundef %4, i32 noundef 0) #10
  %indvars.iv.next59 = add nuw nsw i64 %indvars.iv58, 1
  %exitcond62.not = icmp eq i64 %indvars.iv.next59, %wide.trip.count61
  br i1 %exitcond62.not, label %._crit_edge, label %adpcm_argo_compress_nibble.exit.us.us, !llvm.loop !119

adpcm_argo_compress_nibble.exit.us:               ; preds = %.lr.ph.split.us, %adpcm_argo_compress_nibble.exit.us
  %indvars.iv53 = phi i64 [ %indvars.iv.next54, %adpcm_argo_compress_nibble.exit.us ], [ 0, %.lr.ph.split.us ]
  %115 = getelementptr inbounds nuw i16, ptr %2, i64 %indvars.iv53
  %116 = load i16, ptr %115, align 2, !tbaa !64
  %117 = sext i16 %116 to i32
  %118 = shl nsw i32 %117, 2
  %119 = load i32, ptr %104, align 4, !tbaa !96
  %120 = shl i32 %119, 3
  %121 = sub i32 %118, %120
  %122 = load i32, ptr %105, align 4, !tbaa !94
  %123 = shl nsw i32 %122, 2
  %124 = add nsw i32 %121, %123
  %125 = ashr i32 %124, %4
  %126 = and i32 %125, 15
  %127 = tail call signext i16 @ff_adpcm_argo_expand_nibble(ptr noundef nonnull %0, i32 noundef %126, i32 noundef %4, i32 noundef %5) #10
  %indvars.iv.next54 = add nuw nsw i64 %indvars.iv53, 1
  %exitcond57.not = icmp eq i64 %indvars.iv.next54, %wide.trip.count61
  br i1 %exitcond57.not, label %._crit_edge, label %adpcm_argo_compress_nibble.exit.us, !llvm.loop !119

._crit_edge:                                      ; preds = %put_bits.exit43, %adpcm_argo_compress_nibble.exit.us, %adpcm_argo_compress_nibble.exit.us.us, %.thread, %95
  ret void

.lr.ph.split:                                     ; preds = %.lr.ph.split.preheader, %put_bits.exit43
  %indvars.iv = phi i64 [ 0, %.lr.ph.split.preheader ], [ %indvars.iv.next, %put_bits.exit43 ]
  %128 = getelementptr inbounds nuw i16, ptr %2, i64 %indvars.iv
  %129 = load i16, ptr %128, align 2, !tbaa !64
  %130 = sext i16 %129 to i32
  br i1 %.not.i63, label %139, label %131

131:                                              ; preds = %.lr.ph.split
  %132 = shl nsw i32 %130, 2
  %133 = load i32, ptr %99, align 4, !tbaa !96
  %134 = shl i32 %133, 3
  %135 = sub i32 %132, %134
  %136 = load i32, ptr %100, align 4, !tbaa !94
  %137 = shl nsw i32 %136, 2
  %138 = add nsw i32 %135, %137
  br label %adpcm_argo_compress_nibble.exit

139:                                              ; preds = %.lr.ph.split
  %140 = load i32, ptr %99, align 4, !tbaa !96
  %141 = sub nsw i32 %130, %140
  %142 = shl nsw i32 %141, 2
  br label %adpcm_argo_compress_nibble.exit

adpcm_argo_compress_nibble.exit:                  ; preds = %131, %139
  %.0.i = phi i32 [ %138, %131 ], [ %142, %139 ]
  %143 = ashr i32 %.0.i, %4
  %144 = and i32 %143, 15
  %145 = tail call signext i16 @ff_adpcm_argo_expand_nibble(ptr noundef nonnull %0, i32 noundef %144, i32 noundef %4, i32 noundef %5) #10
  %146 = load i32, ptr %1, align 8, !tbaa !115
  %147 = load i32, ptr %101, align 4, !tbaa !114
  %148 = icmp sgt i32 %147, 4
  br i1 %148, label %149, label %152

149:                                              ; preds = %adpcm_argo_compress_nibble.exit
  %150 = shl i32 %146, 4
  %151 = or disjoint i32 %150, %144
  br label %put_bits.exit43

152:                                              ; preds = %adpcm_argo_compress_nibble.exit
  %153 = load ptr, ptr %102, align 8, !tbaa !112
  %154 = load ptr, ptr %103, align 8, !tbaa !113
  %155 = ptrtoint ptr %153 to i64
  %156 = ptrtoint ptr %154 to i64
  %157 = sub i64 %155, %156
  %158 = icmp ugt i64 %157, 3
  br i1 %158, label %159, label %167

159:                                              ; preds = %152
  %160 = shl i32 %146, %147
  %161 = sub nsw i32 4, %147
  %162 = lshr i32 %144, %161
  %163 = or i32 %162, %160
  %164 = tail call i32 @llvm.bswap.i32(i32 %163)
  store i32 %164, ptr %154, align 1, !tbaa !49
  %165 = load ptr, ptr %103, align 8, !tbaa !113
  %166 = getelementptr inbounds nuw i8, ptr %165, i64 4
  store ptr %166, ptr %103, align 8, !tbaa !113
  br label %put_bits.exit43

167:                                              ; preds = %152
  tail call void (ptr, i32, ptr, ...) @av_log(ptr noundef null, i32 noundef 16, ptr noundef nonnull @.str.39) #10
  br label %put_bits.exit43

put_bits.exit43:                                  ; preds = %159, %167, %149
  %.sink72 = phi i32 [ -4, %149 ], [ 28, %167 ], [ 28, %159 ]
  %.026.i.i41 = phi i32 [ %151, %149 ], [ %144, %167 ], [ %144, %159 ]
  %168 = add nsw i32 %147, %.sink72
  store i32 %.026.i.i41, ptr %1, align 8, !tbaa !115
  store i32 %168, ptr %101, align 4, !tbaa !114
  %indvars.iv.next = add nuw nsw i64 %indvars.iv, 1
  %exitcond.not = icmp eq i64 %indvars.iv.next, %wide.trip.count
  br i1 %exitcond.not, label %._crit_edge, label %.lr.ph.split, !llvm.loop !119
}